target datalayout = "e-m:e-p270:32:32-p271:32:32-p272:64:64-i64:64-i128:128-f80:128-n8:16:32:64-S128"
target triple = "x86_64-pc-linux-gnu"

%"class.icu_77::UObject" = type { ptr }
%"class.icu_77::StringPiece" = type <{ ptr, i32, [4 x i8] }>
%"class.icu_77::MeasureUnit" = type <{ %"class.icu_77::UObject", ptr, i16, i8, [5 x i8] }>
%"class.icu_77::units::UnitsRouter" = type { %"class.icu_77::MaybeStackVector", %"class.icu_77::MaybeStackVector.2" }
%"class.icu_77::MaybeStackVector" = type { %"class.icu_77::MemoryPool" }
%"class.icu_77::MemoryPool" = type { i32, %"class.icu_77::MaybeStackArray.1" }
%"class.icu_77::MaybeStackArray.1" = type { ptr, i32, i8, [8 x ptr] }
%"class.icu_77::MaybeStackVector.2" = type { %"class.icu_77::MemoryPool.3" }
%"class.icu_77::MemoryPool.3" = type { i32, %"class.icu_77::MaybeStackArray.4" }
%"class.icu_77::MaybeStackArray.4" = type { ptr, i32, i8, [8 x ptr] }

; Function Attrs: mustprogress nounwind uwtable
define linkonce_odr void @_ZN6icu_7715MaybeStackArrayIPNS_5units19ConverterPreferenceELi8EEC2Ev(ptr noundef nonnull align 8 dereferenceable(80) %0) unnamed_addr #0 comdat align 2 {
  %2 = alloca ptr, align 8
  store ptr %0, ptr %2, align 8, !tbaa !137
  %3 = load ptr, ptr %2, align 8
  %4 = getelementptr inbounds nuw %"class.icu_77::MaybeStackArray.4", ptr %3, i32 0, i32 0
  %5 = getelementptr inbounds nuw %"class.icu_77::MaybeStackArray.4", ptr %3, i32 0, i32 3
  %6 = getelementptr inbounds [8 x ptr], ptr %5, i64 0, i64 0
  store ptr %6, ptr %4, align 8, !tbaa !139
  %7 = getelementptr inbounds nuw %"class.icu_77::MaybeStackArray.4", ptr %3, i32 0, i32 1
  store i32 8, ptr %7, align 8, !tbaa !140
  %8 = getelementptr inbounds nuw %"class.icu_77::MaybeStackArray.4", ptr %3, i32 0, i32 2
  store i8 0, ptr %8, align 4, !tbaa !141
  ret void
}

; Function Attrs: mustprogress nounwind uwtable
define linkonce_odr void @_ZN6icu_7715MaybeStackArrayIPNS_11MeasureUnitELi8EEC2Ev(ptr noundef nonnull align 8 dereferenceable(80) %0) unnamed_addr #0 comdat align 2 {
  %2 = alloca ptr, align 8
  store ptr %0, ptr %2, align 8, !tbaa !132
  %3 = load ptr, ptr %2, align 8
  %4 = getelementptr inbounds nuw %"class.icu_77::MaybeStackArray.1", ptr %3, i32 0, i32 0
  %5 = getelementptr inbounds nuw %"class.icu_77::MaybeStackArray.1", ptr %3, i32 0, i32 3
  %6 = getelementptr inbounds [8 x ptr], ptr %5, i64 0, i64 0
  store ptr %6, ptr %4, align 8, !tbaa !134
  %7 = getelementptr inbounds nuw %"class.icu_77::MaybeStackArray.1", ptr %3, i32 0, i32 1
  store i32 8, ptr %7, align 8, !tbaa !135
  %8 = getelementptr inbounds nuw %"class.icu_77::MaybeStackArray.1", ptr %3, i32 0, i32 2
  store i8 0, ptr %8, align 4, !tbaa !136
  ret void
}

; Function Attrs: mustprogress uwtable
define linkonce_odr void @_ZN6icu_7710MemoryPoolINS_5units19ConverterPreferenceELi8EEC2Ev(ptr noundef nonnull align 8 dereferenceable(88) %0) unnamed_addr #1 comdat align 2 {
  %2 = alloca ptr, align 8
  store ptr %0, ptr %2, align 8, !tbaa !53
  %3 = load ptr, ptr %2, align 8
  %4 = getelementptr inbounds nuw %"class.icu_77::MemoryPool.3", ptr %3, i32 0, i32 0
  store i32 0, ptr %4, align 8, !tbaa !55
  %5 = getelementptr inbounds nuw %"class.icu_77::MemoryPool.3", ptr %3, i32 0, i32 1
  call void @_ZN6icu_7715MaybeStackArrayIPNS_5units19ConverterPreferenceELi8EEC2Ev(ptr noundef nonnull align 8 dereferenceable(80) %5)
  ret void
}

; Function Attrs: mustprogress uwtable
define linkonce_odr void @_ZN6icu_7710MemoryPoolINS_11MeasureUnitELi8EEC2Ev(ptr noundef nonnull align 8 dereferenceable(88) %0) unnamed_addr #1 comdat align 2 {
  %2 = alloca ptr, align 8
  store ptr %0, ptr %2, align 8, !tbaa !63
  %3 = load ptr, ptr %2, align 8
  %4 = getelementptr inbounds nuw %"class.icu_77::MemoryPool", ptr %3, i32 0, i32 0
  store i32 0, ptr %4, align 8, !tbaa !65
  %5 = getelementptr inbounds nuw %"class.icu_77::MemoryPool", ptr %3, i32 0, i32 1
  call void @_ZN6icu_7715MaybeStackArrayIPNS_11MeasureUnitELi8EEC2Ev(ptr noundef nonnull align 8 dereferenceable(80) %5)
  ret void
}

; Function Attrs: inlinehint mustprogress uwtable
define linkonce_odr void @_ZN6icu_7716MaybeStackVectorINS_5units19ConverterPreferenceELi8EEC2Ev(ptr noundef nonnull align 8 dereferenceable(88) %0) unnamed_addr #3 comdat align 2 {
  %2 = alloca ptr, align 8
  store ptr %0, ptr %2, align 8, !tbaa !45
  %3 = load ptr, ptr %2, align 8
  call void @_ZN6icu_7710MemoryPoolINS_5units19ConverterPreferenceELi8EEC2Ev(ptr noundef nonnull align 8 dereferenceable(88) %3)
  ret void
}

; Function Attrs: inlinehint mustprogress uwtable
define linkonce_odr void @_ZN6icu_7716MaybeStackVectorINS_11MeasureUnitELi8EEC2Ev(ptr noundef nonnull align 8 dereferenceable(88) %0) unnamed_addr #3 comdat align 2 {
  %2 = alloca ptr, align 8
  store ptr %0, ptr %2, align 8, !tbaa !43
  %3 = load ptr, ptr %2, align 8
  call void @_ZN6icu_7710MemoryPoolINS_11MeasureUnitELi8EEC2Ev(ptr noundef nonnull align 8 dereferenceable(88) %3)
  ret void
}

; Function Attrs: mustprogress uwtable
define void @_ZN6icu_775units11UnitsRouterC2ENS_11StringPieceERKNS_6LocaleES2_R10UErrorCode(ptr noundef nonnull align 8 dereferenceable(176) %0, ptr %1, i32 %2, ptr noundef nonnull align 8 dereferenceable(217) %3, ptr %4, i32 %5, ptr noundef nonnull align 4 dereferenceable(4) %6) unnamed_addr #1 align 2 personality ptr @__gxx_personality_v0 {
  %8 = alloca %"class.icu_77::StringPiece", align 8
  %9 = alloca %"class.icu_77::StringPiece", align 8
  %10 = alloca ptr, align 8
  %11 = alloca ptr, align 8
  %12 = alloca ptr, align 8
  %13 = alloca ptr, align 8
  %14 = alloca i32, align 4
  %15 = alloca %"class.icu_77::MeasureUnit", align 8
  %16 = alloca %"class.icu_77::StringPiece", align 8
  %17 = alloca %"class.icu_77::StringPiece", align 8
  %18 = getelementptr inbounds nuw { ptr, i32 }, ptr %8, i32 0, i32 0
  store ptr %1, ptr %18, align 8
  %19 = getelementptr inbounds nuw { ptr, i32 }, ptr %8, i32 0, i32 1
  store i32 %2, ptr %19, align 8
  %20 = getelementptr inbounds nuw { ptr, i32 }, ptr %9, i32 0, i32 0
  store ptr %4, ptr %20, align 8
  %21 = getelementptr inbounds nuw { ptr, i32 }, ptr %9, i32 0, i32 1
  store i32 %5, ptr %21, align 8
  store ptr %0, ptr %10, align 8, !tbaa !39
  store ptr %3, ptr %11, align 8, !tbaa !41
  store ptr %6, ptr %12, align 8, !tbaa !22
  %22 = load ptr, ptr %10, align 8
  %23 = getelementptr inbounds nuw %"class.icu_77::units::UnitsRouter", ptr %22, i32 0, i32 0
  call void @_ZN6icu_7716MaybeStackVectorINS_11MeasureUnitELi8EEC2Ev(ptr noundef nonnull align 8 dereferenceable(88) %23)
  %24 = getelementptr inbounds nuw %"class.icu_77::units::UnitsRouter", ptr %22, i32 0, i32 1
  invoke void @_ZN6icu_7716MaybeStackVectorINS_5units19ConverterPreferenceELi8EEC2Ev(ptr noundef nonnull align 8 dereferenceable(88) %24)
          to label %25 unwind label %39

25:                                               ; preds = %7
  call void @llvm.lifetime.start.p0(i64 24, ptr %15) #11
  call void @llvm.memcpy.p0.p0.i64(ptr align 8 %16, ptr align 8 %8, i64 16, i1 false)
  %26 = load ptr, ptr %12, align 8, !tbaa !22
  %27 = getelementptr inbounds nuw { ptr, i32 }, ptr %16, i32 0, i32 0
  %28 = load ptr, ptr %27, align 8
  %29 = getelementptr inbounds nuw { ptr, i32 }, ptr %16, i32 0, i32 1
  %30 = load i32, ptr %29, align 8
  invoke void @_ZN6icu_7711MeasureUnit13forIdentifierENS_11StringPieceER10UErrorCode(ptr dead_on_unwind writable sret(%"class.icu_77::MeasureUnit") align 8 %15, ptr %28, i32 %30, ptr noundef nonnull align 4 dereferenceable(4) %26)
          to label %31 unwind label %43

31:                                               ; preds = %25
  %32 = load ptr, ptr %11, align 8, !tbaa !41
  call void @llvm.memcpy.p0.p0.i64(ptr align 8 %17, ptr align 8 %9, i64 16, i1 false)
  %33 = load ptr, ptr %12, align 8, !tbaa !22
  %34 = getelementptr inbounds nuw { ptr, i32 }, ptr %17, i32 0, i32 0
  %35 = load ptr, ptr %34, align 8
  %36 = getelementptr inbounds nuw { ptr, i32 }, ptr %17, i32 0, i32 1
  %37 = load i32, ptr %36, align 8
  invoke void @_ZN6icu_775units11UnitsRouter4initERKNS_11MeasureUnitERKNS_6LocaleENS_11StringPieceER10UErrorCode(ptr noundef nonnull align 8 dereferenceable(176) %22, ptr noundef nonnull align 8 dereferenceable(19) %15, ptr noundef nonnull align 8 dereferenceable(217) %32, ptr %35, i32 %37, ptr noundef nonnull align 4 dereferenceable(4) %33)
          to label %38 unwind label %47

38:                                               ; preds = %31
  call void @_ZN6icu_7711MeasureUnitD1Ev(ptr noundef nonnull align 8 dereferenceable(19) %15) #11
  call void @llvm.lifetime.end.p0(i64 24, ptr %15) #11
  ret void

39:                                               ; preds = %7
  %40 = landingpad { ptr, i32 }
          cleanup
  %41 = extractvalue { ptr, i32 } %40, 0
  store ptr %41, ptr %13, align 8
  %42 = extractvalue { ptr, i32 } %40, 1
  store i32 %42, ptr %14, align 4
  br label %52

43:                                               ; preds = %25
  %44 = landingpad { ptr, i32 }
          cleanup
  %45 = extractvalue { ptr, i32 } %44, 0
  store ptr %45, ptr %13, align 8
  %46 = extractvalue { ptr, i32 } %44, 1
  store i32 %46, ptr %14, align 4
  br label %51

47:                                               ; preds = %31
  %48 = landingpad { ptr, i32 }
          cleanup
  %49 = extractvalue { ptr, i32 } %48, 0
  store ptr %49, ptr %13, align 8
  %50 = extractvalue { ptr, i32 } %48, 1
  store i32 %50, ptr %14, align 4
  call void @_ZN6icu_7711MeasureUnitD1Ev(ptr noundef nonnull align 8 dereferenceable(19) %15) #11
  br label %51

51:                                               ; preds = %47, %43
  call void @llvm.lifetime.end.p0(i64 24, ptr %15) #11
  call void @_ZN6icu_7710MemoryPoolINS_5units19ConverterPreferenceELi8EED2Ev(ptr noundef nonnull align 8 dereferenceable(88) %24) #11
  br label %52

52:                                               ; preds = %51, %39
  call void @_ZN6icu_7710MemoryPoolINS_11MeasureUnitELi8EED2Ev(ptr noundef nonnull align 8 dereferenceable(88) %23) #11
  br label %53

53:                                               ; preds = %52
  %54 = load ptr, ptr %13, align 8
  %55 = load i32, ptr %14, align 4
  %56 = insertvalue { ptr, i32 } poison, ptr %54, 0
  %57 = insertvalue { ptr, i32 } %56, i32 %55, 1
  resume { ptr, i32 } %57
}