; Function Attrs: mustprogress uwtable
define void @_ZN6icu_775units11UnitsRouterC2ENS_11StringPieceERKNS_6LocaleES2_R10UErrorCode(ptr noundef nonnull align 8 dereferenceable(176) initializes((0, 4)) %0, ptr %1, i32 %2, ptr noundef nonnull align 8 dereferenceable(217) %3, ptr %4, i32 %5, ptr noundef nonnull align 4 dereferenceable(4) %6) unnamed_addr #1 align 2 personality ptr @__gxx_personality_v0 {
  %8 = alloca %"class.icu_77::MeasureUnit", align 8
  store i32 0, ptr %0, align 8, !tbaa !25
  %9 = getelementptr inbounds nuw i8, ptr %0, i64 8
  %10 = getelementptr inbounds nuw i8, ptr %0, i64 24
  store ptr %10, ptr %9, align 8, !tbaa !30
  %11 = getelementptr inbounds nuw i8, ptr %0, i64 16
  store i32 8, ptr %11, align 8, !tbaa !31
  %12 = getelementptr inbounds nuw i8, ptr %0, i64 20
  store i8 0, ptr %12, align 4, !tbaa !32
  %13 = getelementptr inbounds nuw i8, ptr %0, i64 88
  store i32 0, ptr %13, align 8, !tbaa !33
  %14 = getelementptr inbounds nuw i8, ptr %0, i64 96
  %15 = getelementptr inbounds nuw i8, ptr %0, i64 112
  store ptr %15, ptr %14, align 8, !tbaa !37
  %16 = getelementptr inbounds nuw i8, ptr %0, i64 104
  store i32 8, ptr %16, align 8, !tbaa !38
  %17 = getelementptr inbounds nuw i8, ptr %0, i64 108
  store i8 0, ptr %17, align 4, !tbaa !39
  call void @llvm.lifetime.start.p0(i64 24, ptr nonnull %8) #14
  invoke void @_ZN6icu_7711MeasureUnit13forIdentifierENS_11StringPieceER10UErrorCode(ptr dead_on_unwind nonnull writable sret(%"class.icu_77::MeasureUnit") align 8 %8, ptr %1, i32 %2, ptr noundef nonnull align 4 dereferenceable(4) %6)
          to label %18 unwind label %20

18:                                               ; preds = %7
  invoke void @_ZN6icu_775units11UnitsRouter4initERKNS_11MeasureUnitERKNS_6LocaleENS_11StringPieceER10UErrorCode(ptr noundef nonnull align 8 dereferenceable(176) %0, ptr noundef nonnull align 8 dereferenceable(19) %8, ptr noundef nonnull align 8 dereferenceable(217) %3, ptr %4, i32 %5, ptr noundef nonnull align 4 dereferenceable(4) %6)
          to label %19 unwind label %22

19:                                               ; preds = %18
  call void @_ZN6icu_7711MeasureUnitD1Ev(ptr noundef nonnull align 8 dereferenceable(19) %8) #14
  call void @llvm.lifetime.end.p0(i64 24, ptr nonnull %8) #14
  ret void

20:                                               ; preds = %7
  %21 = landingpad { ptr, i32 }
          cleanup
  br label %24

22:                                               ; preds = %18
  %23 = landingpad { ptr, i32 }
          cleanup
  call void @_ZN6icu_7711MeasureUnitD1Ev(ptr noundef nonnull align 8 dereferenceable(19) %8) #14
  br label %24

24:                                               ; preds = %22, %20
  %.pn = phi { ptr, i32 } [ %23, %22 ], [ %21, %20 ]
  call void @llvm.lifetime.end.p0(i64 24, ptr nonnull %8) #14
  call void @_ZN6icu_7710MemoryPoolINS_5units19ConverterPreferenceELi8EED2Ev(ptr noundef nonnull align 8 dereferenceable(88) %13) #14
  call void @_ZN6icu_7710MemoryPoolINS_11MeasureUnitELi8EED2Ev(ptr noundef nonnull align 8 dereferenceable(88) %0) #14
  resume { ptr, i32 } %.pn
}